; Function Attrs: mustprogress nounwind uwtable
define dso_local void @_ZN4node7tracing11TracedValue10WriteCommaEv(ptr noundef nonnull align 8 dereferenceable(42) %this) local_unnamed_addr #0 align 2 {
entry:
  %first_item_ = getelementptr inbounds i8, ptr %this, i64 40
  %0 = load i8, ptr %first_item_, align 8
  %1 = and i8 %0, 1
  %tobool.not = icmp eq i8 %1, 0
  br i1 %tobool.not, label %if.else, label %if.then

if.then:                                          ; preds = %entry
  store i8 0, ptr %first_item_, align 8
  br label %if.end

if.else:                                          ; preds = %entry
  %data_ = getelementptr inbounds i8, ptr %this, i64 8
  %call = tail call noundef nonnull align 8 dereferenceable(32) ptr @_ZNSt7__cxx1112basic_stringIcSt11char_traitsIcESaIcEEpLEc(ptr noundef nonnull align 8 dereferenceable(32) %data_, i8 noundef signext 44) #10
  br label %if.end

if.end:                                           ; preds = %if.else, %if.then
  ret void
}